; Function Attrs: mustprogress uwtable
define void @_ZNK5Ipopt15ExpansionMatrix15PrintImplOffsetERKNS_10JournalistENS_13EJournalLevelENS_16EJournalCategoryERKNSt7__cxx1112basic_stringIcSt11char_traitsIcESaIcEEEiSD_ii(ptr noundef nonnull readonly align 8 captures(none) dereferenceable(80) %0, ptr noundef nonnull align 8 dereferenceable(40) %1, i32 noundef %2, i32 noundef %3, ptr noundef nonnull readonly align 8 captures(none) dereferenceable(32) %4, i32 noundef %5, ptr noundef nonnull readonly align 8 captures(none) dereferenceable(32) %6, i32 noundef %7, i32 noundef %8) local_unnamed_addr #0 align 2 personality ptr @__gxx_personality_v0 {
  %10 = load ptr, ptr %1, align 8, !tbaa !8
  %11 = getelementptr inbounds nuw i8, ptr %10, i64 16
  %12 = load ptr, ptr %11, align 8
  tail call void (ptr, i32, i32, ptr, ...) %12(ptr noundef nonnull align 8 dereferenceable(40) %1, i32 noundef %2, i32 noundef %3, ptr noundef nonnull @.str)
  %13 = load ptr, ptr %6, align 8, !tbaa !77
  %14 = load ptr, ptr %4, align 8, !tbaa !77
  %15 = getelementptr inbounds nuw i8, ptr %0, i64 56
  %16 = load ptr, ptr %15, align 8, !tbaa !10
  %17 = getelementptr inbounds nuw i8, ptr %16, i64 12
  %18 = load i32, ptr %17, align 4, !tbaa !82
  %19 = getelementptr inbounds nuw i8, ptr %16, i64 16
  %20 = load i32, ptr %19, align 8, !tbaa !50
  %21 = load ptr, ptr %1, align 8, !tbaa !8
  %22 = getelementptr inbounds nuw i8, ptr %21, i64 32
  %23 = load ptr, ptr %22, align 8
  tail call void (ptr, i32, i32, i32, ptr, ...) %23(ptr noundef nonnull align 8 dereferenceable(40) %1, i32 noundef %2, i32 noundef %3, i32 noundef %5, ptr noundef nonnull @.str.1, ptr noundef %13, ptr noundef %14, i32 noundef %18, i32 noundef %20)
  %24 = getelementptr inbounds nuw i8, ptr %0, i64 72
  %25 = load ptr, ptr %24, align 8, !tbaa !25
  %26 = getelementptr inbounds nuw i8, ptr %25, i64 24
  %27 = load ptr, ptr %26, align 8, !tbaa !28
  %28 = load ptr, ptr %15, align 8, !tbaa !10
  %29 = getelementptr inbounds nuw i8, ptr %28, i64 16
  %30 = load i32, ptr %29, align 8, !tbaa !50
  %31 = icmp sgt i32 %30, 0
  br i1 %31, label %.lr.ph, label %._crit_edge

._crit_edge:                                      ; preds = %.lr.ph, %9
  ret void

.lr.ph:                                           ; preds = %9, %.lr.ph
  %indvars.iv = phi i64 [ %indvars.iv.next, %.lr.ph ], [ 0, %9 ]
  %indvars24 = trunc i64 %indvars.iv to i32
  %32 = load ptr, ptr %6, align 8, !tbaa !77
  %33 = load ptr, ptr %4, align 8, !tbaa !77
  %34 = getelementptr inbounds nuw i32, ptr %27, i64 %indvars.iv
  %35 = load i32, ptr %34, align 4, !tbaa !51
  %36 = add nsw i32 %35, %7
  %37 = add nsw i32 %8, %indvars24
  %38 = load ptr, ptr %1, align 8, !tbaa !8
  %39 = getelementptr inbounds nuw i8, ptr %38, i64 32
  %40 = load ptr, ptr %39, align 8
  tail call void (ptr, i32, i32, i32, ptr, ...) %40(ptr noundef nonnull align 8 dereferenceable(40) %1, i32 noundef %2, i32 noundef %3, i32 noundef %5, ptr noundef nonnull @.str.2, ptr noundef %32, ptr noundef %33, i32 noundef %36, i32 noundef %37, double noundef 1.000000e+00, i32 noundef %indvars24)
  %indvars.iv.next = add nuw nsw i64 %indvars.iv, 1
  %41 = load ptr, ptr %15, align 8, !tbaa !10
  %42 = getelementptr inbounds nuw i8, ptr %41, i64 16
  %43 = load i32, ptr %42, align 8, !tbaa !50
  %44 = sext i32 %43 to i64
  %45 = icmp slt i64 %indvars.iv.next, %44
  br i1 %45, label %.lr.ph, label %._crit_edge, !llvm.loop !83
}